target datalayout = "e-m:e-p270:32:32-p271:32:32-p272:64:64-i64:64-i128:128-f80:128-n8:16:32:64-S128"
target triple = "x86_64-pc-linux-gnu"

%struct.encryption_verifier_t = type { i32, [16 x i8], [16 x i8], i32, [32 x i8] }
%struct.encryption_key_t = type { [256 x i8], i32 }

@.str.45 = private unnamed_addr constant [33 x i8] c"ole2: Invalid key length '0x%x'\0A\00", align 1
@.str.46 = private unnamed_addr constant [21 x i8] c"ole2: calloc failed\0A\00", align 1
@.str.47 = private unnamed_addr constant [34 x i8] c"ole2: Invalid salt length '0x%x'\0A\00", align 1
@.str.48 = private unnamed_addr constant [31 x i8] c"ole2: Invalid key length 0x%x\0A\00", align 1

; Function Attrs: nounwind uwtable
define internal zeroext i1 @key_length_valid_aes_bits(i32 noundef %0) #0 {
  %2 = alloca i1, align 1
  %3 = alloca i32, align 4
  store i32 %0, ptr %3, align 4
  %4 = load i32, ptr %3, align 4
  switch i32 %4, label %6 [
    i32 128, label %5
    i32 192, label %5
    i32 256, label %5
  ]

5:                                                ; preds = %1, %1, %1
  store i1 true, ptr %2, align 1
  br label %7

6:                                                ; preds = %1
  store i1 false, ptr %2, align 1
  br label %7

7:                                                ; preds = %6, %5
  %8 = load i1, ptr %2, align 1
  ret i1 %8
}

; Function Attrs: nounwind uwtable
define internal i32 @generate_key_aes(ptr noundef %0, ptr noundef %1, ptr noundef %2) #0 {
  %4 = alloca ptr, align 8
  %5 = alloca ptr, align 8
  %6 = alloca ptr, align 8
  %7 = alloca ptr, align 8
  %8 = alloca i64, align 8
  %9 = alloca i32, align 4
  %10 = alloca i32, align 4
  %11 = alloca [28 x i8], align 16
  %12 = alloca ptr, align 8
  %13 = alloca [64 x i8], align 16
  %14 = alloca [64 x i8], align 16
  %15 = alloca [40 x i8], align 16
  %16 = alloca i32, align 4
  %17 = alloca i32, align 4
  store ptr %0, ptr %4, align 8
  store ptr %1, ptr %5, align 8
  store ptr %2, ptr %6, align 8
  store ptr null, ptr %7, align 8
  store i64 0, ptr %8, align 8
  store i32 34, ptr %9, align 4
  store i32 0, ptr %10, align 4
  call void @llvm.memset.p0.i64(ptr align 16 %11, i8 0, i64 28, i1 false)
  %18 = getelementptr inbounds [28 x i8], ptr %11, i64 0, i64 4
  store ptr %18, ptr %12, align 8
  store i32 0, ptr %16, align 4
  %19 = load ptr, ptr %5, align 8
  %20 = getelementptr inbounds %struct.encryption_key_t, ptr %19, i32 0, i32 1
  %21 = load i32, ptr %20, align 4
  %22 = call zeroext i1 @key_length_valid_aes_bits(i32 noundef %21)
  br i1 %22, label %28, label %23

23:                                               ; preds = %3
  %24 = load ptr, ptr %5, align 8
  %25 = getelementptr inbounds %struct.encryption_key_t, ptr %24, i32 0, i32 1
  %26 = load i32, ptr %25, align 4
  %27 = udiv i32 %26, 8
  call void (ptr, ...) @cli_errmsg(ptr noundef @.str.45, i32 noundef %27)
  br label %192

28:                                               ; preds = %3
  %29 = load ptr, ptr %5, align 8
  %30 = getelementptr inbounds %struct.encryption_key_t, ptr %29, i32 0, i32 0
  %31 = getelementptr inbounds [256 x i8], ptr %30, i64 0, i64 0
  %32 = load ptr, ptr %5, align 8
  %33 = getelementptr inbounds %struct.encryption_key_t, ptr %32, i32 0, i32 1
  %34 = load i32, ptr %33, align 4
  %35 = udiv i32 %34, 8
  %36 = zext i32 %35 to i64
  call void @llvm.memset.p0.i64(ptr align 4 %31, i8 0, i64 %36, i1 false)
  %37 = load ptr, ptr %6, align 8
  %38 = getelementptr inbounds %struct.encryption_verifier_t, ptr %37, i32 0, i32 0
  %39 = load i32, ptr %38, align 1
  %40 = zext i32 %39 to i64
  %41 = load ptr, ptr %4, align 8
  %42 = call i64 @strlen(ptr noundef %41) #12
  %43 = mul i64 %42, 2
  %44 = add i64 %40, %43
  store i64 %44, ptr %8, align 8
  %45 = load i64, ptr %8, align 8
  %46 = call noalias ptr @calloc(i64 noundef %45, i64 noundef 1) #13
  store ptr %46, ptr %7, align 8
  %47 = load ptr, ptr %7, align 8
  %48 = icmp eq ptr null, %47
  br i1 %48, label %49, label %50

49:                                               ; preds = %28
  call void (ptr, ...) @cli_errmsg(ptr noundef @.str.46)
  store i32 20, ptr %9, align 4
  br label %192

50:                                               ; preds = %28
  %51 = load ptr, ptr %6, align 8
  %52 = getelementptr inbounds %struct.encryption_verifier_t, ptr %51, i32 0, i32 0
  %53 = load i32, ptr %52, align 1
  store i32 %53, ptr %16, align 4
  %54 = load ptr, ptr %6, align 8
  %55 = getelementptr inbounds %struct.encryption_verifier_t, ptr %54, i32 0, i32 0
  %56 = load i32, ptr %55, align 1
  %57 = zext i32 %56 to i64
  %58 = icmp ugt i64 %57, 16
  br i1 %58, label %59, label %63

59:                                               ; preds = %50
  %60 = load ptr, ptr %6, align 8
  %61 = getelementptr inbounds %struct.encryption_verifier_t, ptr %60, i32 0, i32 0
  %62 = load i32, ptr %61, align 1
  call void (ptr, ...) @cli_dbgmsg(ptr noundef @.str.47, i32 noundef %62)
  store i32 16, ptr %16, align 4
  br label %63

63:                                               ; preds = %59, %50
  %64 = load ptr, ptr %7, align 8
  %65 = load ptr, ptr %6, align 8
  %66 = getelementptr inbounds %struct.encryption_verifier_t, ptr %65, i32 0, i32 1
  %67 = getelementptr inbounds [16 x i8], ptr %66, i64 0, i64 0
  %68 = load i32, ptr %16, align 4
  %69 = zext i32 %68 to i64
  call void @llvm.memcpy.p0.p0.i64(ptr align 1 %64, ptr align 1 %67, i64 %69, i1 false)
  store i32 0, ptr %10, align 4
  br label %70

70:                                               ; preds = %91, %63
  %71 = load i32, ptr %10, align 4
  %72 = load ptr, ptr %4, align 8
  %73 = call i64 @strlen(ptr noundef %72) #12
  %74 = trunc i64 %73 to i32
  %75 = icmp ult i32 %71, %74
  br i1 %75, label %76, label %94

76:                                               ; preds = %70
  %77 = load ptr, ptr %4, align 8
  %78 = load i32, ptr %10, align 4
  %79 = zext i32 %78 to i64
  %80 = getelementptr inbounds i8, ptr %77, i64 %79
  %81 = load i8, ptr %80, align 1
  %82 = load ptr, ptr %7, align 8
  %83 = load ptr, ptr %6, align 8
  %84 = getelementptr inbounds %struct.encryption_verifier_t, ptr %83, i32 0, i32 0
  %85 = load i32, ptr %84, align 1
  %86 = load i32, ptr %10, align 4
  %87 = mul i32 %86, 2
  %88 = add i32 %85, %87
  %89 = zext i32 %88 to i64
  %90 = getelementptr inbounds i8, ptr %82, i64 %89
  store i8 %81, ptr %90, align 1
  br label %91

91:                                               ; preds = %76
  %92 = load i32, ptr %10, align 4
  %93 = add i32 %92, 1
  store i32 %93, ptr %10, align 4
  br label %70

94:                                               ; preds = %70
  %95 = load ptr, ptr %7, align 8
  %96 = load i64, ptr %8, align 8
  %97 = load ptr, ptr %12, align 8
  %98 = call ptr @cl_sha1(ptr noundef %95, i64 noundef %96, ptr noundef %97, ptr noundef null)
  store i32 0, ptr %10, align 4
  br label %99

99:                                               ; preds = %108, %94
  %100 = load i32, ptr %10, align 4
  %101 = icmp ult i32 %100, 50000
  br i1 %101, label %102, label %111

102:                                              ; preds = %99
  %103 = load i32, ptr %10, align 4
  store i32 %103, ptr %17, align 4
  %104 = getelementptr inbounds [28 x i8], ptr %11, i64 0, i64 0
  call void @llvm.memcpy.p0.p0.i64(ptr align 16 %104, ptr align 4 %17, i64 4, i1 false)
  %105 = getelementptr inbounds [28 x i8], ptr %11, i64 0, i64 0
  %106 = load ptr, ptr %12, align 8
  %107 = call ptr @cl_sha1(ptr noundef %105, i64 noundef 24, ptr noundef %106, ptr noundef null)
  br label %108

108:                                              ; preds = %102
  %109 = load i32, ptr %10, align 4
  %110 = add i32 %109, 1
  store i32 %110, ptr %10, align 4
  br label %99

111:                                              ; preds = %99
  %112 = load ptr, ptr %12, align 8
  %113 = getelementptr inbounds i8, ptr %112, i64 20
  call void @llvm.memset.p0.i64(ptr align 1 %113, i8 0, i64 4, i1 false)
  %114 = load ptr, ptr %12, align 8
  %115 = load ptr, ptr %12, align 8
  %116 = call ptr @cl_sha1(ptr noundef %114, i64 noundef 24, ptr noundef %115, ptr noundef null)
  %117 = getelementptr inbounds [64 x i8], ptr %13, i64 0, i64 0
  call void @llvm.memset.p0.i64(ptr align 16 %117, i8 54, i64 64, i1 false)
  store i32 0, ptr %10, align 4
  br label %118

118:                                              ; preds = %138, %111
  %119 = load i32, ptr %10, align 4
  %120 = icmp ult i32 %119, 20
  br i1 %120, label %121, label %141

121:                                              ; preds = %118
  %122 = load i32, ptr %10, align 4
  %123 = zext i32 %122 to i64
  %124 = getelementptr inbounds [64 x i8], ptr %13, i64 0, i64 %123
  %125 = load i8, ptr %124, align 1
  %126 = zext i8 %125 to i32
  %127 = load ptr, ptr %12, align 8
  %128 = load i32, ptr %10, align 4
  %129 = zext i32 %128 to i64
  %130 = getelementptr inbounds i8, ptr %127, i64 %129
  %131 = load i8, ptr %130, align 1
  %132 = zext i8 %131 to i32
  %133 = xor i32 %126, %132
  %134 = trunc i32 %133 to i8
  %135 = load i32, ptr %10, align 4
  %136 = zext i32 %135 to i64
  %137 = getelementptr inbounds [64 x i8], ptr %13, i64 0, i64 %136
  store i8 %134, ptr %137, align 1
  br label %138

138:                                              ; preds = %121
  %139 = load i32, ptr %10, align 4
  %140 = add i32 %139, 1
  store i32 %140, ptr %10, align 4
  br label %118

141:                                              ; preds = %118
  %142 = getelementptr inbounds [64 x i8], ptr %13, i64 0, i64 0
  %143 = getelementptr inbounds [40 x i8], ptr %15, i64 0, i64 0
  %144 = call ptr @cl_sha1(ptr noundef %142, i64 noundef 64, ptr noundef %143, ptr noundef null)
  %145 = getelementptr inbounds [64 x i8], ptr %14, i64 0, i64 0
  call void @llvm.memset.p0.i64(ptr align 16 %145, i8 92, i64 64, i1 false)
  store i32 0, ptr %10, align 4
  br label %146

146:                                              ; preds = %166, %141
  %147 = load i32, ptr %10, align 4
  %148 = icmp ult i32 %147, 20
  br i1 %148, label %149, label %169

149:                                              ; preds = %146
  %150 = load i32, ptr %10, align 4
  %151 = zext i32 %150 to i64
  %152 = getelementptr inbounds [64 x i8], ptr %14, i64 0, i64 %151
  %153 = load i8, ptr %152, align 1
  %154 = zext i8 %153 to i32
  %155 = load ptr, ptr %12, align 8
  %156 = load i32, ptr %10, align 4
  %157 = zext i32 %156 to i64
  %158 = getelementptr inbounds i8, ptr %155, i64 %157
  %159 = load i8, ptr %158, align 1
  %160 = zext i8 %159 to i32
  %161 = xor i32 %154, %160
  %162 = trunc i32 %161 to i8
  %163 = load i32, ptr %10, align 4
  %164 = zext i32 %163 to i64
  %165 = getelementptr inbounds [64 x i8], ptr %14, i64 0, i64 %164
  store i8 %162, ptr %165, align 1
  br label %166

166:                                              ; preds = %149
  %167 = load i32, ptr %10, align 4
  %168 = add i32 %167, 1
  store i32 %168, ptr %10, align 4
  br label %146

169:                                              ; preds = %146
  %170 = getelementptr inbounds [64 x i8], ptr %14, i64 0, i64 0
  %171 = getelementptr inbounds [40 x i8], ptr %15, i64 0, i64 20
  %172 = call ptr @cl_sha1(ptr noundef %170, i64 noundef 64, ptr noundef %171, ptr noundef null)
  %173 = load ptr, ptr %5, align 8
  %174 = getelementptr inbounds %struct.encryption_key_t, ptr %173, i32 0, i32 1
  %175 = load i32, ptr %174, align 4
  %176 = udiv i32 %175, 8
  store i32 %176, ptr %16, align 4
  %177 = load i32, ptr %16, align 4
  %178 = zext i32 %177 to i64
  %179 = icmp ugt i64 %178, 256
  br i1 %179, label %180, label %185

180:                                              ; preds = %169
  %181 = load ptr, ptr %5, align 8
  %182 = getelementptr inbounds %struct.encryption_key_t, ptr %181, i32 0, i32 1
  %183 = load i32, ptr %182, align 4
  %184 = udiv i32 %183, 8
  call void (ptr, ...) @cli_warnmsg(ptr noundef @.str.48, i32 noundef %184)
  store i32 256, ptr %16, align 4
  br label %185

185:                                              ; preds = %180, %169
  %186 = load ptr, ptr %5, align 8
  %187 = getelementptr inbounds %struct.encryption_key_t, ptr %186, i32 0, i32 0
  %188 = getelementptr inbounds [256 x i8], ptr %187, i64 0, i64 0
  %189 = getelementptr inbounds [40 x i8], ptr %15, i64 0, i64 0
  %190 = load i32, ptr %16, align 4
  %191 = zext i32 %190 to i64
  call void @llvm.memcpy.p0.p0.i64(ptr align 4 %188, ptr align 16 %189, i64 %191, i1 false)
  store i32 0, ptr %9, align 4
  br label %192

192:                                              ; preds = %185, %49, %23
  br label %193

193:                                              ; preds = %192
  %194 = load ptr, ptr %7, align 8
  %195 = icmp ne ptr null, %194
  br i1 %195, label %196, label %198

196:                                              ; preds = %193
  %197 = load ptr, ptr %7, align 8
  call void @free(ptr noundef %197) #10
  store ptr null, ptr %7, align 8
  br label %198

198:                                              ; preds = %196, %193
  br label %199

199:                                              ; preds = %198
  %200 = load i32, ptr %9, align 4
  ret i32 %200
}