; Function Attrs: nounwind uwtable
define internal fastcc noundef i32 @generate_key_aes(ptr nocapture noundef %0, ptr nocapture noundef readonly %1) unnamed_addr #2 {
  %3 = alloca [28 x i8], align 16
  %4 = alloca [64 x i8], align 16
  %5 = alloca [64 x i8], align 16
  %6 = alloca [40 x i8], align 16
  call void @llvm.memset.p0.i64(ptr noundef nonnull align 16 dereferenceable(28) %3, i8 0, i64 28, i1 false)
  %7 = getelementptr inbounds i8, ptr %3, i64 4
  %8 = getelementptr inbounds i8, ptr %0, i64 256
  %9 = load i32, ptr %8, align 4
  switch i32 %9, label %key_length_valid_aes_bits.exit [
    i32 128, label %11
    i32 192, label %11
    i32 256, label %11
  ]

key_length_valid_aes_bits.exit:                   ; preds = %2
  %10 = lshr i32 %9, 3
  tail call void (ptr, ...) @cli_errmsg(ptr noundef nonnull @.str.45, i32 noundef %10) #21
  br label %.thread

11:                                               ; preds = %2, %2, %2
  %12 = lshr i32 %9, 3
  %13 = zext nneg i32 %12 to i64
  tail call void @llvm.memset.p0.i64(ptr nonnull align 4 %0, i8 0, i64 %13, i1 false)
  %14 = load i32, ptr %1, align 1
  %15 = zext i32 %14 to i64
  %16 = add nuw nsw i64 %15, 30
  %17 = tail call noalias ptr @calloc(i64 noundef %16, i64 noundef 1) #24
  %18 = icmp eq ptr %17, null
  br i1 %18, label %19, label %20

19:                                               ; preds = %11
  tail call void (ptr, ...) @cli_errmsg(ptr noundef nonnull @.str.46) #21
  br label %.thread

20:                                               ; preds = %11
  %21 = icmp ugt i32 %14, 16
  br i1 %21, label %22, label %23

22:                                               ; preds = %20
  tail call void (ptr, ...) @cli_dbgmsg(ptr noundef nonnull @.str.47, i32 noundef %14) #21
  %.pre = load i32, ptr %1, align 1
  br label %23

23:                                               ; preds = %22, %20
  %24 = phi i32 [ %.pre, %22 ], [ %14, %20 ]
  %.051 = phi i32 [ 16, %22 ], [ %14, %20 ]
  %25 = getelementptr inbounds i8, ptr %1, i64 4
  %26 = zext nneg i32 %.051 to i64
  tail call void @llvm.memcpy.p0.p0.i64(ptr nonnull align 1 %17, ptr nonnull align 1 %25, i64 %26, i1 false)
  br label %27

27:                                               ; preds = %23, %27
  %indvars.iv = phi i64 [ 0, %23 ], [ %indvars.iv.next, %27 ]
  %28 = getelementptr inbounds i8, ptr @.str.43, i64 %indvars.iv
  %29 = load i8, ptr %28, align 1
  %indvars.iv.tr = trunc i64 %indvars.iv to i32
  %30 = shl i32 %indvars.iv.tr, 1
  %31 = add i32 %24, %30
  %32 = zext i32 %31 to i64
  %33 = getelementptr inbounds i8, ptr %17, i64 %32
  store i8 %29, ptr %33, align 1
  %indvars.iv.next = add nuw nsw i64 %indvars.iv, 1
  %exitcond.not = icmp eq i64 %indvars.iv.next, 15
  br i1 %exitcond.not, label %34, label %27

34:                                               ; preds = %27
  %35 = call ptr @cl_sha1(ptr noundef nonnull %17, i64 noundef %16, ptr noundef nonnull %7, ptr noundef null) #21
  br label %36

36:                                               ; preds = %34, %36
  %.1537 = phi i32 [ 0, %34 ], [ %38, %36 ]
  store i32 %.1537, ptr %3, align 16
  %37 = call ptr @cl_sha1(ptr noundef nonnull %3, i64 noundef 24, ptr noundef nonnull %7, ptr noundef null) #21
  %38 = add nuw nsw i32 %.1537, 1
  %exitcond11.not = icmp eq i32 %38, 50000
  br i1 %exitcond11.not, label %39, label %36

39:                                               ; preds = %36
  %40 = getelementptr inbounds i8, ptr %3, i64 24
  store i32 0, ptr %40, align 8
  %41 = call ptr @cl_sha1(ptr noundef nonnull %7, i64 noundef 24, ptr noundef nonnull %7, ptr noundef null) #21
  call void @llvm.memset.p0.i64(ptr noundef nonnull align 16 dereferenceable(64) %4, i8 54, i64 64, i1 false)
  br label %42

42:                                               ; preds = %39, %42
  %indvars.iv12 = phi i64 [ 0, %39 ], [ %indvars.iv.next13, %42 ]
  %43 = getelementptr inbounds [64 x i8], ptr %4, i64 0, i64 %indvars.iv12
  %44 = load i8, ptr %43, align 1
  %45 = getelementptr inbounds i8, ptr %7, i64 %indvars.iv12
  %46 = load i8, ptr %45, align 1
  %47 = xor i8 %46, %44
  store i8 %47, ptr %43, align 1
  %indvars.iv.next13 = add nuw nsw i64 %indvars.iv12, 1
  %exitcond15.not = icmp eq i64 %indvars.iv.next13, 20
  br i1 %exitcond15.not, label %48, label %42

48:                                               ; preds = %42
  %49 = call ptr @cl_sha1(ptr noundef nonnull %4, i64 noundef 64, ptr noundef nonnull %6, ptr noundef null) #21
  call void @llvm.memset.p0.i64(ptr noundef nonnull align 16 dereferenceable(64) %5, i8 92, i64 64, i1 false)
  br label %50

50:                                               ; preds = %48, %50
  %indvars.iv16 = phi i64 [ 0, %48 ], [ %indvars.iv.next17, %50 ]
  %51 = getelementptr inbounds [64 x i8], ptr %5, i64 0, i64 %indvars.iv16
  %52 = load i8, ptr %51, align 1
  %53 = getelementptr inbounds i8, ptr %7, i64 %indvars.iv16
  %54 = load i8, ptr %53, align 1
  %55 = xor i8 %54, %52
  store i8 %55, ptr %51, align 1
  %indvars.iv.next17 = add nuw nsw i64 %indvars.iv16, 1
  %exitcond19.not = icmp eq i64 %indvars.iv.next17, 20
  br i1 %exitcond19.not, label %56, label %50

56:                                               ; preds = %50
  %57 = getelementptr inbounds i8, ptr %6, i64 20
  %58 = call ptr @cl_sha1(ptr noundef nonnull %5, i64 noundef 64, ptr noundef nonnull %57, ptr noundef null) #21
  %59 = load i32, ptr %8, align 4
  %60 = lshr i32 %59, 3
  %61 = icmp ugt i32 %59, 2055
  br i1 %61, label %62, label %63

62:                                               ; preds = %56
  call void (ptr, ...) @cli_warnmsg(ptr noundef nonnull @.str.48, i32 noundef %60) #21
  br label %63

63:                                               ; preds = %56, %62
  %.1 = phi i32 [ 256, %62 ], [ %60, %56 ]
  %64 = zext nneg i32 %.1 to i64
  call void @llvm.memcpy.p0.p0.i64(ptr nonnull align 4 %0, ptr nonnull align 16 %6, i64 %64, i1 false)
  call void @free(ptr noundef nonnull %17) #21
  br label %.thread

.thread:                                          ; preds = %key_length_valid_aes_bits.exit, %19, %63
  %.0545 = phi i32 [ 0, %63 ], [ 34, %key_length_valid_aes_bits.exit ], [ 20, %19 ]
  ret i32 %.0545
}